target datalayout = "e-m:e-p270:32:32-p271:32:32-p272:64:64-i64:64-i128:128-f80:128-n8:16:32:64-S128"
target triple = "x86_64-pc-linux-gnu"

@.str.1 = private unnamed_addr constant [12 x i8] c"xlogfuncs.c\00", align 1
@.str.20 = private unnamed_addr constant [28 x i8] c"recovery is not in progress\00", align 1
@.str.21 = private unnamed_addr constant [65 x i8] c"Recovery control functions can only be executed during recovery.\00", align 1
@__func__.pg_wal_replay_pause = private unnamed_addr constant [20 x i8] c"pg_wal_replay_pause\00", align 1
@.str.22 = private unnamed_addr constant [29 x i8] c"standby promotion is ongoing\00", align 1
@.str.23 = private unnamed_addr constant [52 x i8] c"%s cannot be executed after promotion is triggered.\00", align 1
@.str.24 = private unnamed_addr constant [22 x i8] c"pg_wal_replay_pause()\00", align 1

; Function Attrs: nounwind uwtable
define dso_local i64 @pg_wal_replay_pause(ptr noundef %0) #0 {
  %2 = alloca ptr, align 8
  store ptr %0, ptr %2, align 8
  %3 = call zeroext i1 @RecoveryInProgress()
  br i1 %3, label %16, label %4

4:                                                ; preds = %1
  br label %5

5:                                                ; preds = %4
  br i1 true, label %6, label %8

6:                                                ; preds = %5
  %7 = call zeroext i1 @errstart_cold(i32 noundef 21, ptr noundef null) #10
  br i1 %7, label %10, label %14

8:                                                ; preds = %5
  %9 = call zeroext i1 @errstart(i32 noundef 21, ptr noundef null)
  br i1 %9, label %10, label %14

10:                                               ; preds = %8, %6
  %11 = call i32 @errcode(i32 noundef 325)
  %12 = call i32 (ptr, ...) @errmsg(ptr noundef @.str.20)
  %13 = call i32 (ptr, ...) @errhint(ptr noundef @.str.21)
  call void @errfinish(ptr noundef @.str.1, i32 noundef 524, ptr noundef @__func__.pg_wal_replay_pause)
  br label %14

14:                                               ; preds = %10, %8, %6
  unreachable

15:                                               ; No predecessors!
  br label %16

16:                                               ; preds = %15, %1
  %17 = call zeroext i1 @PromoteIsTriggered()
  br i1 %17, label %18, label %30

18:                                               ; preds = %16
  br label %19

19:                                               ; preds = %18
  br i1 true, label %20, label %22

20:                                               ; preds = %19
  %21 = call zeroext i1 @errstart_cold(i32 noundef 21, ptr noundef null) #10
  br i1 %21, label %24, label %28

22:                                               ; preds = %19
  %23 = call zeroext i1 @errstart(i32 noundef 21, ptr noundef null)
  br i1 %23, label %24, label %28

24:                                               ; preds = %22, %20
  %25 = call i32 @errcode(i32 noundef 325)
  %26 = call i32 (ptr, ...) @errmsg(ptr noundef @.str.22)
  %27 = call i32 (ptr, ...) @errhint(ptr noundef @.str.23, ptr noundef @.str.24)
  call void @errfinish(ptr noundef @.str.1, i32 noundef 531, ptr noundef @__func__.pg_wal_replay_pause)
  br label %28

28:                                               ; preds = %24, %22, %20
  unreachable

29:                                               ; No predecessors!
  br label %30

30:                                               ; preds = %29, %16
  call void @SetRecoveryPause(i1 noundef zeroext true)
  call void @WakeupRecovery()
  ret i64 0
}