; Function Attrs: nounwind uwtable
define dso_local noundef i64 @pg_wal_replay_pause(ptr noundef readnone captures(none) %0) local_unnamed_addr #0 {
  %2 = tail call zeroext i1 @RecoveryInProgress() #9
  br i1 %2, label %8, label %3

3:                                                ; preds = %1
  %4 = tail call zeroext i1 @errstart_cold(i32 noundef 21, ptr noundef null) #10
  tail call void @llvm.assume(i1 %4)
  %5 = tail call i32 @errcode(i32 noundef 325) #9
  %6 = tail call i32 (ptr, ...) @errmsg(ptr noundef nonnull @.str.20) #9
  %7 = tail call i32 (ptr, ...) @errhint(ptr noundef nonnull @.str.21) #9
  tail call void @errfinish(ptr noundef nonnull @.str.1, i32 noundef 524, ptr noundef nonnull @__func__.pg_wal_replay_pause) #9
  unreachable

8:                                                ; preds = %1
  %9 = tail call zeroext i1 @PromoteIsTriggered() #9
  br i1 %9, label %10, label %15

10:                                               ; preds = %8
  %11 = tail call zeroext i1 @errstart_cold(i32 noundef 21, ptr noundef null) #10
  tail call void @llvm.assume(i1 %11)
  %12 = tail call i32 @errcode(i32 noundef 325) #9
  %13 = tail call i32 (ptr, ...) @errmsg(ptr noundef nonnull @.str.22) #9
  %14 = tail call i32 (ptr, ...) @errhint(ptr noundef nonnull @.str.23, ptr noundef nonnull @.str.24) #9
  tail call void @errfinish(ptr noundef nonnull @.str.1, i32 noundef 531, ptr noundef nonnull @__func__.pg_wal_replay_pause) #9
  unreachable

15:                                               ; preds = %8
  tail call void @SetRecoveryPause(i1 noundef zeroext true) #9
  tail call void @WakeupRecovery() #9
  ret i64 0
}